; ModuleID = '31/234.c'
source_filename = "31/234.c"
target datalayout = "e-m:e-p270:32:32-p271:32:32-p272:64:64-i64:64-f80:128-n8:16:32:64-S128"
target triple = "x86_64-pc-linux-gnu"

%struct.student = type { [15 x i8], [20 x i8], i8, i32, [10 x i8], [30 x i8], %struct.student* }

@.str = private unnamed_addr constant [4 x i8] c"%s \00", align 1
@.str.1 = private unnamed_addr constant [4 x i8] c"end\00", align 1
@.str.2 = private unnamed_addr constant [16 x i8] c"%s %c %d %s %s\0A\00", align 1
@.str.3 = private unnamed_addr constant [19 x i8] c"%s %s %c %d %s %s\0A\00", align 1

; Function Attrs: noinline nounwind uwtable
define dso_local i32 @main() #0 {
  %1 = alloca i32, align 4
  %2 = alloca i32, align 4
  %3 = alloca i32, align 4
  %4 = alloca %struct.student*, align 8
  %5 = alloca %struct.student*, align 8
  %6 = alloca %struct.student*, align 8
  store i32 0, i32* %1, align 4
  store i32 0, i32* %2, align 4
  %7 = call noalias i8* @malloc(i64 100) #4
  %8 = bitcast i8* %7 to %struct.student*
  store %struct.student* %8, %struct.student** %6, align 8
  store %struct.student* %8, %struct.student** %5, align 8
  %9 = load %struct.student*, %struct.student** %5, align 8
  %10 = getelementptr inbounds %struct.student, %struct.student* %9, i32 0, i32 6
  store %struct.student* null, %struct.student** %10, align 8
  %11 = load %struct.student*, %struct.student** %5, align 8
  %12 = getelementptr inbounds %struct.student, %struct.student* %11, i32 0, i32 0
  %13 = getelementptr inbounds [15 x i8], [15 x i8]* %12, i64 0, i64 0
  %14 = call i32 (i8*, ...) @__isoc99_scanf(i8* getelementptr inbounds ([4 x i8], [4 x i8]* @.str, i64 0, i64 0), i8* %13)
  br label %15

15:                                               ; preds = %21, %0
  %16 = load %struct.student*, %struct.student** %5, align 8
  %17 = getelementptr inbounds %struct.student, %struct.student* %16, i32 0, i32 0
  %18 = getelementptr inbounds [15 x i8], [15 x i8]* %17, i64 0, i64 0
  %19 = call i32 @strcmp(i8* %18, i8* getelementptr inbounds ([4 x i8], [4 x i8]* @.str.1, i64 0, i64 0)) #5
  %20 = icmp ne i32 %19, 0
  br i1 %20, label %21, label %48

21:                                               ; preds = %15
  %22 = load i32, i32* %2, align 4
  %23 = add nsw i32 %22, 1
  store i32 %23, i32* %2, align 4
  %24 = load %struct.student*, %struct.student** %5, align 8
  %25 = getelementptr inbounds %struct.student, %struct.student* %24, i32 0, i32 1
  %26 = getelementptr inbounds [20 x i8], [20 x i8]* %25, i64 0, i64 0
  %27 = load %struct.student*, %struct.student** %5, align 8
  %28 = getelementptr inbounds %struct.student, %struct.student* %27, i32 0, i32 2
  %29 = load %struct.student*, %struct.student** %5, align 8
  %30 = getelementptr inbounds %struct.student, %struct.student* %29, i32 0, i32 3
  %31 = load %struct.student*, %struct.student** %5, align 8
  %32 = getelementptr inbounds %struct.student, %struct.student* %31, i32 0, i32 4
  %33 = getelementptr inbounds [10 x i8], [10 x i8]* %32, i64 0, i64 0
  %34 = load %struct.student*, %struct.student** %5, align 8
  %35 = getelementptr inbounds %struct.student, %struct.student* %34, i32 0, i32 5
  %36 = getelementptr inbounds [30 x i8], [30 x i8]* %35, i64 0, i64 0
  %37 = call i32 (i8*, ...) @__isoc99_scanf(i8* getelementptr inbounds ([16 x i8], [16 x i8]* @.str.2, i64 0, i64 0), i8* %26, i8* %28, i32* %30, i8* %33, i8* %36)
  %38 = call noalias i8* @malloc(i64 100) #4
  %39 = bitcast i8* %38 to %struct.student*
  store %struct.student* %39, %struct.student** %6, align 8
  %40 = load %struct.student*, %struct.student** %5, align 8
  %41 = load %struct.student*, %struct.student** %6, align 8
  %42 = getelementptr inbounds %struct.student, %struct.student* %41, i32 0, i32 6
  store %struct.student* %40, %struct.student** %42, align 8
  %43 = load %struct.student*, %struct.student** %6, align 8
  store %struct.student* %43, %struct.student** %5, align 8
  %44 = load %struct.student*, %struct.student** %5, align 8
  %45 = getelementptr inbounds %struct.student, %struct.student* %44, i32 0, i32 0
  %46 = getelementptr inbounds [15 x i8], [15 x i8]* %45, i64 0, i64 0
  %47 = call i32 (i8*, ...) @__isoc99_scanf(i8* getelementptr inbounds ([4 x i8], [4 x i8]* @.str, i64 0, i64 0), i8* %46)
  br label %15

48:                                               ; preds = %15
  %49 = load %struct.student*, %struct.student** %5, align 8
  %50 = getelementptr inbounds %struct.student, %struct.student* %49, i32 0, i32 6
  %51 = load %struct.student*, %struct.student** %50, align 8
  store %struct.student* %51, %struct.student** %4, align 8
  %52 = load %struct.student*, %struct.student** %4, align 8
  store %struct.student* %52, %struct.student** %6, align 8
  store %struct.student* %52, %struct.student** %5, align 8
  store i32 0, i32* %3, align 4
  br label %53

53:                                               ; preds = %82, %48
  %54 = load i32, i32* %3, align 4
  %55 = load i32, i32* %2, align 4
  %56 = icmp slt i32 %54, %55
  br i1 %56, label %57, label %85

57:                                               ; preds = %53
  %58 = load %struct.student*, %struct.student** %5, align 8
  %59 = getelementptr inbounds %struct.student, %struct.student* %58, i32 0, i32 0
  %60 = getelementptr inbounds [15 x i8], [15 x i8]* %59, i64 0, i64 0
  %61 = load %struct.student*, %struct.student** %5, align 8
  %62 = getelementptr inbounds %struct.student, %struct.student* %61, i32 0, i32 1
  %63 = getelementptr inbounds [20 x i8], [20 x i8]* %62, i64 0, i64 0
  %64 = load %struct.student*, %struct.student** %5, align 8
  %65 = getelementptr inbounds %struct.student, %struct.student* %64, i32 0, i32 2
  %66 = load i8, i8* %65, align 1
  %67 = sext i8 %66 to i32
  %68 = load %struct.student*, %struct.student** %5, align 8
  %69 = getelementptr inbounds %struct.student, %struct.student* %68, i32 0, i32 3
  %70 = load i32, i32* %69, align 4
  %71 = load %struct.student*, %struct.student** %5, align 8
  %72 = getelementptr inbounds %struct.student, %struct.student* %71, i32 0, i32 4
  %73 = getelementptr inbounds [10 x i8], [10 x i8]* %72, i64 0, i64 0
  %74 = load %struct.student*, %struct.student** %5, align 8
  %75 = getelementptr inbounds %struct.student, %struct.student* %74, i32 0, i32 5
  %76 = getelementptr inbounds [30 x i8], [30 x i8]* %75, i64 0, i64 0
  %77 = call i32 (i8*, ...) @printf(i8* getelementptr inbounds ([19 x i8], [19 x i8]* @.str.3, i64 0, i64 0), i8* %60, i8* %63, i32 %67, i32 %70, i8* %73, i8* %76)
  %78 = load %struct.student*, %struct.student** %6, align 8
  %79 = getelementptr inbounds %struct.student, %struct.student* %78, i32 0, i32 6
  %80 = load %struct.student*, %struct.student** %79, align 8
  store %struct.student* %80, %struct.student** %5, align 8
  %81 = load %struct.student*, %struct.student** %5, align 8
  store %struct.student* %81, %struct.student** %6, align 8
  br label %82

82:                                               ; preds = %57
  %83 = load i32, i32* %3, align 4
  %84 = add nsw i32 %83, 1
  store i32 %84, i32* %3, align 4
  br label %53

85:                                               ; preds = %53
  %86 = load i32, i32* %1, align 4
  ret i32 %86
}

; Function Attrs: nounwind
declare dso_local noalias i8* @malloc(i64) #1

declare dso_local i32 @__isoc99_scanf(i8*, ...) #2

; Function Attrs: nounwind readonly
declare dso_local i32 @strcmp(i8*, i8*) #3

declare dso_local i32 @printf(i8*, ...) #2


!llvm.module.flags = !{!0}
!llvm.ident = !{!1}

!0 = !{i32 1, !"wchar_size", i32 4}
!1 = !{!"clang version 10.0.0-4ubuntu1 "}
