; ModuleID = 'source-C-CXX/30/234.c'
source_filename = "source-C-CXX/30/234.c"
target datalayout = "e-m:e-p270:32:32-p271:32:32-p272:64:64-i64:64-f80:128-n8:16:32:64-S128"
target triple = "x86_64-pc-linux-gnu"

%struct.student = type { [15 x i8], [20 x i8], i8, i32, [10 x i8], [30 x i8], %struct.student* }

@.str = private unnamed_addr constant [4 x i8] c"%s \00", align 1
@.str.1 = private unnamed_addr constant [4 x i8] c"end\00", align 1
@.str.2 = private unnamed_addr constant [16 x i8] c"%s %c %d %s %s\0A\00", align 1
@.str.3 = private unnamed_addr constant [19 x i8] c"%s %s %c %d %s %s\0A\00", align 1

; Function Attrs: nofree nounwind sspstrong uwtable
define dso_local i32 @main() local_unnamed_addr #0 {
  %1 = tail call noalias align 16 dereferenceable_or_null(100) i8* @malloc(i64 100) #4
  %2 = bitcast i8* %1 to %struct.student*
  %3 = getelementptr inbounds %struct.student, %struct.student* %2, i64 0, i32 6
  store %struct.student* null, %struct.student** %3, align 16, !tbaa !5
  %4 = getelementptr inbounds %struct.student, %struct.student* %2, i64 0, i32 0, i64 0
  %5 = tail call i32 (i8*, ...) @__isoc99_scanf(i8* getelementptr inbounds ([4 x i8], [4 x i8]* @.str, i64 0, i64 0), i8* %4)
  %6 = tail call i32 @strcmp(i8* noundef nonnull dereferenceable(1) %4, i8* noundef nonnull dereferenceable(4) getelementptr inbounds ([4 x i8], [4 x i8]* @.str.1, i64 0, i64 0)) #5
  %7 = icmp eq i32 %6, 0
  br i1 %7, label %44, label %10

8:                                                ; preds = %10
  %9 = bitcast i8* %20 to %struct.student*
  br label %27

10:                                               ; preds = %0, %10
  %11 = phi %struct.student* [ %21, %10 ], [ %2, %0 ]
  %12 = phi i32 [ %13, %10 ], [ 0, %0 ]
  %13 = add nuw nsw i32 %12, 1
  %14 = getelementptr inbounds %struct.student, %struct.student* %11, i64 0, i32 1, i64 0
  %15 = getelementptr inbounds %struct.student, %struct.student* %11, i64 0, i32 2
  %16 = getelementptr inbounds %struct.student, %struct.student* %11, i64 0, i32 3
  %17 = getelementptr inbounds %struct.student, %struct.student* %11, i64 0, i32 4, i64 0
  %18 = getelementptr inbounds %struct.student, %struct.student* %11, i64 0, i32 5, i64 0
  %19 = tail call i32 (i8*, ...) @__isoc99_scanf(i8* getelementptr inbounds ([16 x i8], [16 x i8]* @.str.2, i64 0, i64 0), i8* nonnull %14, i8* nonnull %15, i32* nonnull %16, i8* nonnull %17, i8* nonnull %18)
  %20 = tail call noalias align 16 dereferenceable_or_null(100) i8* @malloc(i64 100) #4
  %21 = bitcast i8* %20 to %struct.student*
  %22 = getelementptr inbounds %struct.student, %struct.student* %21, i64 0, i32 6
  store %struct.student* %11, %struct.student** %22, align 16, !tbaa !5
  %23 = getelementptr inbounds %struct.student, %struct.student* %21, i64 0, i32 0, i64 0
  %24 = tail call i32 (i8*, ...) @__isoc99_scanf(i8* getelementptr inbounds ([4 x i8], [4 x i8]* @.str, i64 0, i64 0), i8* %23)
  %25 = tail call i32 @strcmp(i8* noundef nonnull dereferenceable(1) %23, i8* noundef nonnull dereferenceable(4) getelementptr inbounds ([4 x i8], [4 x i8]* @.str.1, i64 0, i64 0)) #5
  %26 = icmp eq i32 %25, 0
  br i1 %26, label %8, label %10, !llvm.loop !11

27:                                               ; preds = %8, %27
  %28 = phi %struct.student* [ %31, %27 ], [ %9, %8 ]
  %29 = phi i32 [ %42, %27 ], [ 0, %8 ]
  %30 = getelementptr inbounds %struct.student, %struct.student* %28, i64 0, i32 6
  %31 = load %struct.student*, %struct.student** %30, align 8, !tbaa !5
  %32 = getelementptr inbounds %struct.student, %struct.student* %31, i64 0, i32 0, i64 0
  %33 = getelementptr inbounds %struct.student, %struct.student* %31, i64 0, i32 1, i64 0
  %34 = getelementptr inbounds %struct.student, %struct.student* %31, i64 0, i32 2
  %35 = load i8, i8* %34, align 1, !tbaa !13
  %36 = sext i8 %35 to i32
  %37 = getelementptr inbounds %struct.student, %struct.student* %31, i64 0, i32 3
  %38 = load i32, i32* %37, align 4, !tbaa !14
  %39 = getelementptr inbounds %struct.student, %struct.student* %31, i64 0, i32 4, i64 0
  %40 = getelementptr inbounds %struct.student, %struct.student* %31, i64 0, i32 5, i64 0
  %41 = tail call i32 (i8*, ...) @printf(i8* nonnull dereferenceable(1) getelementptr inbounds ([19 x i8], [19 x i8]* @.str.3, i64 0, i64 0), i8* %32, i8* nonnull %33, i32 %36, i32 %38, i8* nonnull %39, i8* nonnull %40)
  %42 = add nuw i32 %29, 1
  %43 = icmp eq i32 %29, %12
  br i1 %43, label %44, label %27, !llvm.loop !15

44:                                               ; preds = %27, %0
  ret i32 0
}

; Function Attrs: inaccessiblememonly mustprogress nofree nounwind willreturn
declare noalias noundef align 16 i8* @malloc(i64 noundef) local_unnamed_addr #1

; Function Attrs: nofree nounwind
declare noundef i32 @__isoc99_scanf(i8* nocapture noundef readonly, ...) local_unnamed_addr #2

; Function Attrs: argmemonly mustprogress nofree nounwind readonly willreturn
declare i32 @strcmp(i8* nocapture, i8* nocapture) local_unnamed_addr #3

; Function Attrs: nofree nounwind
declare noundef i32 @printf(i8* nocapture noundef readonly, ...) local_unnamed_addr #2


!llvm.module.flags = !{!0, !1, !2, !3}
!llvm.ident = !{!4}

!0 = !{i32 1, !"wchar_size", i32 4}
!1 = !{i32 7, !"PIC Level", i32 2}
!2 = !{i32 7, !"PIE Level", i32 2}
!3 = !{i32 7, !"uwtable", i32 1}
!4 = !{!"clang version 13.0.0"}
!5 = !{!6, !10, i64 80}
!6 = !{!"student", !7, i64 0, !7, i64 15, !7, i64 35, !9, i64 36, !7, i64 40, !7, i64 50, !10, i64 80}
!7 = !{!"omnipotent char", !8, i64 0}
!8 = !{!"Simple C/C++ TBAA"}
!9 = !{!"int", !7, i64 0}
!10 = !{!"any pointer", !7, i64 0}
!11 = distinct !{!11, !12}
!12 = !{!"llvm.loop.mustprogress"}
!13 = !{!6, !7, i64 35}
!14 = !{!6, !9, i64 36}
!15 = distinct !{!15, !12}
